target datalayout = "e-m:e-p270:32:32-p271:32:32-p272:64:64-i64:64-i128:128-f80:128-n8:16:32:64-S128"
target triple = "x86_64-pc-linux-gnu"

%struct.lxb_html_tree = type { ptr, ptr, ptr, ptr, ptr, ptr, ptr, %struct.lxb_html_tree_pending_table_t, ptr, i8, i8, i8, i8, i8, i8, ptr, ptr, ptr, i32, i64 }
%struct.lxb_html_tree_pending_table_t = type { ptr, i8 }
%struct.lxb_html_token_t = type { ptr, ptr, i64, i64, ptr, ptr, ptr, ptr, ptr, i64, i64, i32 }

; Function Attrs: inlinehint nounwind uwtable
define internal ptr @lxb_html_tree_insert_html_element(ptr noundef %0, ptr noundef %1) #3 {
  %3 = alloca ptr, align 8
  %4 = alloca ptr, align 8
  store ptr %0, ptr %3, align 8, !tbaa !4
  store ptr %1, ptr %4, align 8, !tbaa !9
  %5 = load ptr, ptr %3, align 8, !tbaa !4
  %6 = load ptr, ptr %4, align 8, !tbaa !9
  %7 = call ptr @lxb_html_tree_insert_foreign_element(ptr noundef %5, ptr noundef %6, i64 noundef 2)
  ret ptr %7
}

; Function Attrs: inlinehint nounwind uwtable
define internal zeroext i1 @lxb_html_tree_insertion_mode_in_body_a(ptr noundef %0, ptr noundef %1) #3 {
  %3 = alloca i1, align 1
  %4 = alloca ptr, align 8
  %5 = alloca ptr, align 8
  %6 = alloca ptr, align 8
  %7 = alloca ptr, align 8
  %8 = alloca i32, align 4
  store ptr %0, ptr %4, align 8, !tbaa !4
  store ptr %1, ptr %5, align 8, !tbaa !9
  call void @llvm.lifetime.start.p0(i64 8, ptr %6) #5
  call void @llvm.lifetime.start.p0(i64 8, ptr %7) #5
  %9 = load ptr, ptr %4, align 8, !tbaa !4
  %10 = load ptr, ptr %5, align 8, !tbaa !9
  %11 = getelementptr inbounds nuw %struct.lxb_html_token_t, ptr %10, i32 0, i32 10
  %12 = load i64, ptr %11, align 8, !tbaa !21
  %13 = call ptr @lxb_html_tree_active_formatting_between_last_marker(ptr noundef %9, i64 noundef %12, ptr noundef null)
  store ptr %13, ptr %6, align 8, !tbaa !37
  %14 = load ptr, ptr %6, align 8, !tbaa !37
  %15 = icmp ne ptr %14, null
  br i1 %15, label %16, label %36

16:                                               ; preds = %2
  %17 = load ptr, ptr %4, align 8, !tbaa !4
  %18 = load ptr, ptr %5, align 8, !tbaa !9
  call void @lxb_html_tree_parse_error(ptr noundef %17, ptr noundef %18, i32 noundef 27)
  %19 = load ptr, ptr %4, align 8, !tbaa !4
  %20 = load ptr, ptr %5, align 8, !tbaa !9
  %21 = load ptr, ptr %4, align 8, !tbaa !4
  %22 = getelementptr inbounds nuw %struct.lxb_html_tree, ptr %21, i32 0, i32 18
  %23 = call zeroext i1 @lxb_html_tree_adoption_agency_algorithm(ptr noundef %19, ptr noundef %20, ptr noundef %22)
  %24 = load ptr, ptr %4, align 8, !tbaa !4
  %25 = getelementptr inbounds nuw %struct.lxb_html_tree, ptr %24, i32 0, i32 18
  %26 = load i32, ptr %25, align 8, !tbaa !25
  %27 = icmp ne i32 %26, 0
  br i1 %27, label %28, label %31

28:                                               ; preds = %16
  %29 = load ptr, ptr %4, align 8, !tbaa !4
  %30 = call zeroext i1 @lxb_html_tree_process_abort(ptr noundef %29)
  store i1 %30, ptr %3, align 1
  store i32 1, ptr %8, align 4
  br label %63

31:                                               ; preds = %16
  %32 = load ptr, ptr %4, align 8, !tbaa !4
  %33 = load ptr, ptr %6, align 8, !tbaa !37
  call void @lxb_html_tree_active_formatting_remove_by_node(ptr noundef %32, ptr noundef %33)
  %34 = load ptr, ptr %4, align 8, !tbaa !4
  %35 = load ptr, ptr %6, align 8, !tbaa !37
  call void @lxb_html_tree_open_elements_remove_by_node(ptr noundef %34, ptr noundef %35)
  br label %36

36:                                               ; preds = %31, %2
  %37 = load ptr, ptr %4, align 8, !tbaa !4
  %38 = call i32 @lxb_html_tree_active_formatting_reconstruct_elements(ptr noundef %37)
  %39 = load ptr, ptr %4, align 8, !tbaa !4
  %40 = getelementptr inbounds nuw %struct.lxb_html_tree, ptr %39, i32 0, i32 18
  store i32 %38, ptr %40, align 8, !tbaa !25
  %41 = load ptr, ptr %4, align 8, !tbaa !4
  %42 = getelementptr inbounds nuw %struct.lxb_html_tree, ptr %41, i32 0, i32 18
  %43 = load i32, ptr %42, align 8, !tbaa !25
  %44 = icmp ne i32 %43, 0
  br i1 %44, label %45, label %48

45:                                               ; preds = %36
  %46 = load ptr, ptr %4, align 8, !tbaa !4
  %47 = call zeroext i1 @lxb_html_tree_process_abort(ptr noundef %46)
  store i1 %47, ptr %3, align 1
  store i32 1, ptr %8, align 4
  br label %63

48:                                               ; preds = %36
  %49 = load ptr, ptr %4, align 8, !tbaa !4
  %50 = load ptr, ptr %5, align 8, !tbaa !9
  %51 = call ptr @lxb_html_tree_insert_html_element(ptr noundef %49, ptr noundef %50)
  store ptr %51, ptr %7, align 8, !tbaa !40
  %52 = load ptr, ptr %7, align 8, !tbaa !40
  %53 = icmp eq ptr %52, null
  br i1 %53, label %54, label %59

54:                                               ; preds = %48
  %55 = load ptr, ptr %4, align 8, !tbaa !4
  %56 = getelementptr inbounds nuw %struct.lxb_html_tree, ptr %55, i32 0, i32 18
  store i32 2, ptr %56, align 8, !tbaa !25
  %57 = load ptr, ptr %4, align 8, !tbaa !4
  %58 = call zeroext i1 @lxb_html_tree_process_abort(ptr noundef %57)
  store i1 %58, ptr %3, align 1
  store i32 1, ptr %8, align 4
  br label %63

59:                                               ; preds = %48
  %60 = load ptr, ptr %7, align 8, !tbaa !40
  store ptr %60, ptr %6, align 8, !tbaa !37
  %61 = load ptr, ptr %4, align 8, !tbaa !4
  %62 = load ptr, ptr %6, align 8, !tbaa !37
  call void @lxb_html_tree_active_formatting_push_with_check_dupl(ptr noundef %61, ptr noundef %62)
  store i1 true, ptr %3, align 1
  store i32 1, ptr %8, align 4
  br label %63

63:                                               ; preds = %59, %54, %45, %28
  call void @llvm.lifetime.end.p0(i64 8, ptr %7) #5
  call void @llvm.lifetime.end.p0(i64 8, ptr %6) #5
  %64 = load i1, ptr %3, align 1
  ret i1 %64
}