; Function Attrs: inlinehint nounwind uwtable
define internal fastcc zeroext i1 @lxb_html_tree_insertion_mode_in_body_a(ptr noundef %0, ptr noundef %1) unnamed_addr #3 {
  %3 = getelementptr inbounds nuw i8, ptr %1, i64 80
  %4 = load i64, ptr %3, align 8, !tbaa !18
  %5 = tail call ptr @lxb_html_tree_active_formatting_between_last_marker(ptr noundef %0, i64 noundef %4, ptr noundef null) #6
  %.not = icmp eq ptr %5, null
  br i1 %.not, label %13, label %6

6:                                                ; preds = %2
  tail call void @lxb_html_tree_parse_error(ptr noundef %0, ptr noundef nonnull %1, i32 noundef 27) #6
  %7 = getelementptr inbounds nuw i8, ptr %0, i64 112
  %8 = tail call zeroext i1 @lxb_html_tree_adoption_agency_algorithm(ptr noundef %0, ptr noundef nonnull %1, ptr noundef nonnull %7) #6
  %9 = load i32, ptr %7, align 8, !tbaa !22
  %.not29 = icmp eq i32 %9, 0
  br i1 %.not29, label %12, label %10

10:                                               ; preds = %6
  %11 = tail call zeroext i1 @lxb_html_tree_process_abort(ptr noundef nonnull %0) #6
  br label %24

12:                                               ; preds = %6
  tail call void @lxb_html_tree_active_formatting_remove_by_node(ptr noundef nonnull %0, ptr noundef nonnull %5) #6
  tail call void @lxb_html_tree_open_elements_remove_by_node(ptr noundef nonnull %0, ptr noundef nonnull %5) #6
  br label %13

13:                                               ; preds = %12, %2
  %14 = tail call i32 @lxb_html_tree_active_formatting_reconstruct_elements(ptr noundef %0) #6
  %15 = getelementptr inbounds nuw i8, ptr %0, i64 112
  store i32 %14, ptr %15, align 8, !tbaa !22
  %.not30 = icmp eq i32 %14, 0
  br i1 %.not30, label %18, label %16

16:                                               ; preds = %13
  %17 = tail call zeroext i1 @lxb_html_tree_process_abort(ptr noundef nonnull %0) #6
  br label %24

18:                                               ; preds = %13
  %19 = tail call ptr @lxb_html_tree_insert_foreign_element(ptr noundef nonnull %0, ptr noundef nonnull %1, i64 noundef 2) #6
  %20 = icmp eq ptr %19, null
  br i1 %20, label %21, label %23

21:                                               ; preds = %18
  store i32 2, ptr %15, align 8, !tbaa !22
  %22 = tail call zeroext i1 @lxb_html_tree_process_abort(ptr noundef nonnull %0) #6
  br label %24

23:                                               ; preds = %18
  tail call void @lxb_html_tree_active_formatting_push_with_check_dupl(ptr noundef nonnull %0, ptr noundef nonnull %19) #6
  br label %24

24:                                               ; preds = %23, %21, %16, %10
  %.0 = phi i1 [ %11, %10 ], [ %17, %16 ], [ %22, %21 ], [ true, %23 ]
  ret i1 %.0
}